; ModuleID = '44/1163.c'
source_filename = "44/1163.c"
target datalayout = "e-m:e-p270:32:32-p271:32:32-p272:64:64-i64:64-f80:128-n8:16:32:64-S128"
target triple = "x86_64-pc-linux-gnu"

@.str = private unnamed_addr constant [3 x i8] c"%d\00", align 1
@.str.1 = private unnamed_addr constant [5 x i8] c"-%d\0A\00", align 1
@.str.2 = private unnamed_addr constant [4 x i8] c"%d\0A\00", align 1
@.str.3 = private unnamed_addr constant [3 x i8] c"0\0A\00", align 1

; Function Attrs: noinline nounwind uwtable
define dso_local i32 @reverse(i32 %0) #0 {
  %2 = alloca i32, align 4
  %3 = alloca i32, align 4
  %4 = alloca i32, align 4
  %5 = alloca i32, align 4
  %6 = alloca i32, align 4
  %7 = alloca i32, align 4
  store i32 %0, i32* %2, align 4
  store i32 0, i32* %3, align 4
  store i32 0, i32* %4, align 4
  %8 = load i32, i32* %2, align 4
  store i32 %8, i32* %6, align 4
  store i32 1, i32* %7, align 4
  br label %9

9:                                                ; preds = %12, %1
  %10 = load i32, i32* %6, align 4
  %11 = icmp sgt i32 %10, 0
  br i1 %11, label %12, label %17

12:                                               ; preds = %9
  %13 = load i32, i32* %3, align 4
  %14 = add nsw i32 %13, 1
  store i32 %14, i32* %3, align 4
  %15 = load i32, i32* %6, align 4
  %16 = sdiv i32 %15, 10
  store i32 %16, i32* %6, align 4
  br label %9

17:                                               ; preds = %9
  store i32 0, i32* %5, align 4
  br label %18

18:                                               ; preds = %25, %17
  %19 = load i32, i32* %5, align 4
  %20 = load i32, i32* %3, align 4
  %21 = icmp slt i32 %19, %20
  br i1 %21, label %22, label %28

22:                                               ; preds = %18
  %23 = load i32, i32* %7, align 4
  %24 = mul nsw i32 %23, 10
  store i32 %24, i32* %7, align 4
  br label %25

25:                                               ; preds = %22
  %26 = load i32, i32* %5, align 4
  %27 = add nsw i32 %26, 1
  store i32 %27, i32* %5, align 4
  br label %18

28:                                               ; preds = %18
  store i32 1, i32* %5, align 4
  %29 = load i32, i32* %7, align 4
  %30 = sdiv i32 %29, 10
  store i32 %30, i32* %7, align 4
  br label %31

31:                                               ; preds = %34, %28
  %32 = load i32, i32* %7, align 4
  %33 = icmp sgt i32 %32, 0
  br i1 %33, label %34, label %49

34:                                               ; preds = %31
  %35 = load i32, i32* %2, align 4
  %36 = load i32, i32* %7, align 4
  %37 = sdiv i32 %35, %36
  %38 = load i32, i32* %5, align 4
  %39 = mul nsw i32 %37, %38
  %40 = load i32, i32* %4, align 4
  %41 = add nsw i32 %39, %40
  store i32 %41, i32* %4, align 4
  %42 = load i32, i32* %2, align 4
  %43 = load i32, i32* %7, align 4
  %44 = srem i32 %42, %43
  store i32 %44, i32* %2, align 4
  %45 = load i32, i32* %5, align 4
  %46 = mul nsw i32 %45, 10
  store i32 %46, i32* %5, align 4
  %47 = load i32, i32* %7, align 4
  %48 = sdiv i32 %47, 10
  store i32 %48, i32* %7, align 4
  br label %31

49:                                               ; preds = %31
  %50 = load i32, i32* %4, align 4
  ret i32 %50
}

; Function Attrs: noinline nounwind uwtable
define dso_local void @main() #0 {
  %1 = alloca [6 x i32], align 16
  %2 = alloca i32, align 4
  %3 = alloca i32, align 4
  %4 = bitcast [6 x i32]* %1 to i8*
  call void @llvm.memset.p0i8.i64(i8* align 16 %4, i8 0, i64 24, i1 false)
  store i32 0, i32* %2, align 4
  br label %5

5:                                                ; preds = %13, %0
  %6 = load i32, i32* %2, align 4
  %7 = icmp slt i32 %6, 6
  br i1 %7, label %8, label %16

8:                                                ; preds = %5
  %9 = load i32, i32* %2, align 4
  %10 = sext i32 %9 to i64
  %11 = getelementptr inbounds [6 x i32], [6 x i32]* %1, i64 0, i64 %10
  %12 = call i32 (i8*, ...) @__isoc99_scanf(i8* getelementptr inbounds ([3 x i8], [3 x i8]* @.str, i64 0, i64 0), i32* %11)
  br label %13

13:                                               ; preds = %8
  %14 = load i32, i32* %2, align 4
  %15 = add nsw i32 %14, 1
  store i32 %15, i32* %2, align 4
  br label %5

16:                                               ; preds = %5
  store i32 0, i32* %2, align 4
  br label %17

17:                                               ; preds = %51, %16
  %18 = load i32, i32* %2, align 4
  %19 = icmp slt i32 %18, 6
  br i1 %19, label %20, label %54

20:                                               ; preds = %17
  %21 = load i32, i32* %2, align 4
  %22 = sext i32 %21 to i64
  %23 = getelementptr inbounds [6 x i32], [6 x i32]* %1, i64 0, i64 %22
  %24 = load i32, i32* %23, align 4
  %25 = icmp slt i32 %24, 0
  br i1 %25, label %26, label %34

26:                                               ; preds = %20
  %27 = load i32, i32* %2, align 4
  %28 = sext i32 %27 to i64
  %29 = getelementptr inbounds [6 x i32], [6 x i32]* %1, i64 0, i64 %28
  %30 = load i32, i32* %29, align 4
  %31 = sub nsw i32 0, %30
  %32 = call i32 @reverse(i32 %31)
  %33 = call i32 (i8*, ...) @printf(i8* getelementptr inbounds ([5 x i8], [5 x i8]* @.str.1, i64 0, i64 0), i32 %32)
  br label %50

34:                                               ; preds = %20
  %35 = load i32, i32* %2, align 4
  %36 = sext i32 %35 to i64
  %37 = getelementptr inbounds [6 x i32], [6 x i32]* %1, i64 0, i64 %36
  %38 = load i32, i32* %37, align 4
  %39 = icmp sgt i32 %38, 0
  br i1 %39, label %40, label %47

40:                                               ; preds = %34
  %41 = load i32, i32* %2, align 4
  %42 = sext i32 %41 to i64
  %43 = getelementptr inbounds [6 x i32], [6 x i32]* %1, i64 0, i64 %42
  %44 = load i32, i32* %43, align 4
  %45 = call i32 @reverse(i32 %44)
  %46 = call i32 (i8*, ...) @printf(i8* getelementptr inbounds ([4 x i8], [4 x i8]* @.str.2, i64 0, i64 0), i32 %45)
  br label %49

47:                                               ; preds = %34
  %48 = call i32 (i8*, ...) @printf(i8* getelementptr inbounds ([3 x i8], [3 x i8]* @.str.3, i64 0, i64 0))
  br label %49

49:                                               ; preds = %47, %40
  br label %50

50:                                               ; preds = %49, %26
  br label %51

51:                                               ; preds = %50
  %52 = load i32, i32* %2, align 4
  %53 = add nsw i32 %52, 1
  store i32 %53, i32* %2, align 4
  br label %17

54:                                               ; preds = %17
  ret void
}

; Function Attrs: argmemonly nounwind willreturn
declare void @llvm.memset.p0i8.i64(i8* nocapture writeonly, i8, i64, i1 immarg) #1

declare dso_local i32 @__isoc99_scanf(i8*, ...) #2

declare dso_local i32 @printf(i8*, ...) #2


!llvm.module.flags = !{!0}
!llvm.ident = !{!1}

!0 = !{i32 1, !"wchar_size", i32 4}
!1 = !{!"clang version 10.0.0-4ubuntu1 "}
